; Function Attrs: mustprogress uwtable
define hidden void @_ZN4lean2ir10mk_str_litERKNS_10string_refE(ptr dead_on_unwind noalias writable writeonly sret(%"class.lean::object_ref") align 8 captures(none) initializes((0, 8)) %0, ptr noundef nonnull readonly align 8 captures(none) dereferenceable(8) %1) local_unnamed_addr #0 {
  %3 = load ptr, ptr %1, align 8, !tbaa !3
  %4 = ptrtoint ptr %3 to i64
  %5 = and i64 %4, 1
  %.not.i.i = icmp eq i64 %5, 0
  br i1 %.not.i.i, label %6, label %_ZNK4lean10object_ref10to_obj_argEv.exit

6:                                                ; preds = %2
  %.val.i.i.i = load i32, ptr %3, align 4, !tbaa !8
  %7 = icmp sgt i32 %.val.i.i.i, 0
  br i1 %7, label %8, label %10, !prof !11

8:                                                ; preds = %6
  %9 = add nuw nsw i32 %.val.i.i.i, 1
  store i32 %9, ptr %3, align 4, !tbaa !8
  br label %_ZNK4lean10object_ref10to_obj_argEv.exit

10:                                               ; preds = %6
  %.not.i.i.i = icmp eq i32 %.val.i.i.i, 0
  br i1 %.not.i.i.i, label %_ZNK4lean10object_ref10to_obj_argEv.exit, label %11

11:                                               ; preds = %10
  tail call void @lean_inc_ref_cold(ptr noundef nonnull %3)
  %.pre.i = load ptr, ptr %1, align 8, !tbaa !3
  br label %_ZNK4lean10object_ref10to_obj_argEv.exit

_ZNK4lean10object_ref10to_obj_argEv.exit:         ; preds = %2, %8, %10, %11
  %12 = phi ptr [ %3, %2 ], [ %3, %8 ], [ %3, %10 ], [ %.pre.i, %11 ]
  %13 = tail call ptr @lean_ir_mk_str_expr(ptr noundef %12)
  store ptr %13, ptr %0, align 8, !tbaa !3
  ret void
}